; Function Attrs: mustprogress uwtable
define hidden void @_ZN23generic_model_converter7displayERSo(ptr noundef nonnull align 8 dereferenceable(80) %this, ptr noundef nonnull align 8 dereferenceable(8) %out) unnamed_addr #3 align 2 {
entry:
  %m_entries = getelementptr inbounds i8, ptr %this, i64 72
  %0 = load ptr, ptr %m_entries, align 8
  %cmp.i.i = icmp eq ptr %0, null
  br i1 %cmp.i.i, label %for.end, label %_ZN6vectorIN23generic_model_converter5entryELb1EjE3endEv.exit

_ZN6vectorIN23generic_model_converter5entryELb1EjE3endEv.exit: ; preds = %entry
  %arrayidx.i.i = getelementptr inbounds i8, ptr %0, i64 -4
  %1 = load i32, ptr %arrayidx.i.i, align 4
  %2 = zext i32 %1 to i64
  %add.ptr.i = getelementptr inbounds %"struct.generic_model_converter::entry", ptr %0, i64 %2
  %cmp.not8 = icmp eq i32 %1, 0
  br i1 %cmp.not8, label %for.end, label %for.body.lr.ph

for.body.lr.ph:                                   ; preds = %_ZN6vectorIN23generic_model_converter5entryELb1EjE3endEv.exit
  %m = getelementptr inbounds i8, ptr %this, i64 32
  br label %for.body

for.body:                                         ; preds = %for.body.lr.ph, %for.inc
  %__begin1.09 = phi ptr [ %0, %for.body.lr.ph ], [ %incdec.ptr, %for.inc ]
  %m_instruction = getelementptr inbounds i8, ptr %__begin1.09, i64 32
  %3 = load i32, ptr %m_instruction, align 8
  switch i32 %3, label %for.inc [
    i32 0, label %sw.bb
    i32 1, label %sw.bb4
  ]

sw.bb:                                            ; preds = %for.body
  %4 = load ptr, ptr %__begin1.09, align 8
  tail call void @_ZNK15model_converter11display_delERSoP9func_decl(ptr noundef nonnull align 8 dereferenceable(25) %this, ptr noundef nonnull align 8 dereferenceable(8) %out, ptr noundef %4)
  br label %for.inc

sw.bb4:                                           ; preds = %for.body
  %5 = load ptr, ptr %m, align 8
  %6 = load ptr, ptr %__begin1.09, align 8
  %m_def = getelementptr inbounds i8, ptr %__begin1.09, i64 16
  %7 = load ptr, ptr %m_def, align 8
  tail call void @_ZNK15model_converter11display_addERSoR11ast_managerP9func_declP4expr(ptr noundef nonnull align 8 dereferenceable(25) %this, ptr noundef nonnull align 8 dereferenceable(8) %out, ptr noundef nonnull align 8 dereferenceable(976) %5, ptr noundef %6, ptr noundef %7)
  br label %for.inc

for.inc:                                          ; preds = %for.body, %sw.bb, %sw.bb4
  %incdec.ptr = getelementptr inbounds i8, ptr %__begin1.09, i64 40
  %cmp.not = icmp eq ptr %incdec.ptr, %add.ptr.i
  br i1 %cmp.not, label %for.end, label %for.body

for.end:                                          ; preds = %for.inc, %entry, %_ZN6vectorIN23generic_model_converter5entryELb1EjE3endEv.exit
  ret void
}